target datalayout = "e-m:e-p270:32:32-p271:32:32-p272:64:64-i64:64-i128:128-f80:128-n8:16:32:64-S128"
target triple = "x86_64-pc-linux-gnu"

%struct.H5PL_vfd_key_t = type { i32, %union.anon.1 }
%union.anon.1 = type { ptr }
%union.H5PL_key_t = type { %struct.H5PL_vol_key_t }
%struct.H5PL_vol_key_t = type { i32, %union.anon.0 }
%union.anon.0 = type { ptr }

@H5FD_init_g = external global i8, align 1
@H5_libterm_g = external global i8, align 1
@.str = private unnamed_addr constant [101 x i8] c"generated/home/dtcxzyw/WorkSpace/Projects/compilers/llvm-opt-benchmark/bench/hdf5/hdf5/src/H5FDint.c\00", align 1
@H5E_CANTINIT_g = external global i64, align 8
@H5E_FUNC_g = external global i64, align 8
@.str.6 = private unnamed_addr constant [32 x i8] c"interface initialization failed\00", align 1
@H5E_VFL_g = external global i64, align 8
@H5E_CANTREGISTER_g = external global i64, align 8
@H5E_BADITER_g = external global i64, align 8
@.str.39 = private unnamed_addr constant [44 x i8] c"can't check if driver is already registered\00", align 1
@H5E_CANTINC_g = external global i64, align 8
@.str.40 = private unnamed_addr constant [37 x i8] c"unable to increment ref count on VFD\00", align 1
@.str.41 = private unnamed_addr constant [19 x i8] c"unable to load VFD\00", align 1
@.str.42 = private unnamed_addr constant [26 x i8] c"unable to register VFD ID\00", align 1
@__func__.H5FD_register_driver_by_value = private unnamed_addr constant [30 x i8] c"H5FD_register_driver_by_value\00", align 1

; Function Attrs: nounwind uwtable
define i64 @H5FD_register_driver_by_value(i32 noundef %0, i1 noundef zeroext %1) #0 {
  %3 = alloca i64, align 8
  %4 = alloca i32, align 4
  %5 = alloca i8, align 1
  %6 = alloca i32, align 4
  %7 = alloca i64, align 8
  %8 = alloca i64, align 8
  %9 = alloca i8, align 1
  %10 = alloca %union.H5PL_key_t, align 8
  %11 = alloca ptr, align 8
  %12 = alloca i32, align 4
  store i32 %0, ptr %4, align 4, !tbaa !12
  %13 = zext i1 %1 to i8
  store i8 %13, ptr %5, align 1, !tbaa !14
  call void @llvm.lifetime.start.p0(i64 4, ptr %6) #8
  store i32 0, ptr %6, align 4, !tbaa !12
  call void @llvm.lifetime.start.p0(i64 8, ptr %7) #8
  store i64 -1, ptr %7, align 8, !tbaa !10
  call void @llvm.lifetime.start.p0(i64 8, ptr %8) #8
  store i64 -1, ptr %8, align 8, !tbaa !10
  call void @llvm.lifetime.start.p0(i64 1, ptr %9) #8
  store i8 0, ptr %9, align 1, !tbaa !14
  %14 = load i8, ptr @H5FD_init_g, align 1, !tbaa !14, !range !16, !noundef !17
  %15 = trunc i8 %14 to i1
  br i1 %15, label %20, label %16

16:                                               ; preds = %2
  %17 = load i8, ptr @H5_libterm_g, align 1, !tbaa !14, !range !16, !noundef !17
  %18 = trunc i8 %17 to i1
  %19 = xor i1 %18, true
  br label %20

20:                                               ; preds = %16, %2
  %21 = phi i1 [ false, %2 ], [ %19, %16 ]
  %22 = xor i1 %21, true
  %23 = xor i1 %22, true
  %24 = zext i1 %23 to i32
  %25 = sext i32 %24 to i64
  %26 = call i64 @llvm.expect.i64(i64 %25, i64 0)
  %27 = icmp ne i64 %26, 0
  br i1 %27, label %28, label %51

28:                                               ; preds = %20
  store i8 1, ptr @H5FD_init_g, align 1, !tbaa !14
  %29 = call i32 @H5FD__init_package()
  %30 = icmp slt i32 %29, 0
  br i1 %30, label %31, label %50

31:                                               ; preds = %28
  store i8 0, ptr @H5FD_init_g, align 1, !tbaa !14
  br label %32

32:                                               ; preds = %31
  br label %33

33:                                               ; preds = %32
  br label %34

34:                                               ; preds = %33
  %35 = load i64, ptr @H5E_FUNC_g, align 8, !tbaa !10
  %36 = load i64, ptr @H5E_CANTINIT_g, align 8, !tbaa !10
  %37 = call i32 (ptr, ptr, i32, i64, i64, ptr, ...) @H5E_printf_stack(ptr noundef @.str, ptr noundef @__func__.H5FD_register_driver_by_value, i32 noundef 3235, i64 noundef %35, i64 noundef %36, ptr noundef @.str.6)
  br label %38

38:                                               ; preds = %34
  br label %39

39:                                               ; preds = %38
  store i8 1, ptr %9, align 1, !tbaa !14
  %40 = load i8, ptr %9, align 1, !tbaa !14, !range !16, !noundef !17
  %41 = trunc i8 %40 to i1
  %42 = zext i1 %41 to i8
  store i8 %42, ptr %9, align 1, !tbaa !14
  br label %43

43:                                               ; preds = %39
  br label %44

44:                                               ; preds = %43
  br label %45

45:                                               ; preds = %44
  store i64 -1, ptr %8, align 8, !tbaa !10
  br label %174

46:                                               ; No predecessors!
  br label %47

47:                                               ; preds = %46
  br label %48

48:                                               ; preds = %47
  br label %49

49:                                               ; preds = %48
  br label %50

50:                                               ; preds = %49, %28
  br label %51

51:                                               ; preds = %50, %20
  %52 = load i8, ptr @H5FD_init_g, align 1, !tbaa !14, !range !16, !noundef !17
  %53 = trunc i8 %52 to i1
  br i1 %53, label %58, label %54

54:                                               ; preds = %51
  %55 = load i8, ptr @H5_libterm_g, align 1, !tbaa !14, !range !16, !noundef !17
  %56 = trunc i8 %55 to i1
  %57 = xor i1 %56, true
  br label %58

58:                                               ; preds = %54, %51
  %59 = phi i1 [ true, %51 ], [ %57, %54 ]
  %60 = xor i1 %59, true
  %61 = xor i1 %60, true
  %62 = zext i1 %61 to i32
  %63 = sext i32 %62 to i64
  %64 = call i64 @llvm.expect.i64(i64 %63, i64 1)
  %65 = icmp ne i64 %64, 0
  br i1 %65, label %66, label %175

66:                                               ; preds = %58
  %67 = load i32, ptr %4, align 4, !tbaa !12
  %68 = call i32 @H5FD_is_driver_registered_by_value(i32 noundef %67, ptr noundef %7)
  store i32 %68, ptr %6, align 4, !tbaa !12
  %69 = icmp slt i32 %68, 0
  br i1 %69, label %70, label %89

70:                                               ; preds = %66
  br label %71

71:                                               ; preds = %70
  br label %72

72:                                               ; preds = %71
  br label %73

73:                                               ; preds = %72
  %74 = load i64, ptr @H5E_VFL_g, align 8, !tbaa !10
  %75 = load i64, ptr @H5E_BADITER_g, align 8, !tbaa !10
  %76 = call i32 (ptr, ptr, i32, i64, i64, ptr, ...) @H5E_printf_stack(ptr noundef @.str, ptr noundef @__func__.H5FD_register_driver_by_value, i32 noundef 3239, i64 noundef %74, i64 noundef %75, ptr noundef @.str.39)
  br label %77

77:                                               ; preds = %73
  br label %78

78:                                               ; preds = %77
  store i8 1, ptr %9, align 1, !tbaa !14
  %79 = load i8, ptr %9, align 1, !tbaa !14, !range !16, !noundef !17
  %80 = trunc i8 %79 to i1
  %81 = zext i1 %80 to i8
  store i8 %81, ptr %9, align 1, !tbaa !14
  br label %82

82:                                               ; preds = %78
  br label %83

83:                                               ; preds = %82
  br label %84

84:                                               ; preds = %83
  store i64 -1, ptr %8, align 8, !tbaa !10
  br label %174

85:                                               ; No predecessors!
  br label %86

86:                                               ; preds = %85
  br label %87

87:                                               ; preds = %86
  br label %88

88:                                               ; preds = %87
  br label %89

89:                                               ; preds = %88, %66
  %90 = load i32, ptr %6, align 4, !tbaa !12
  %91 = icmp ne i32 %90, 0
  br i1 %91, label %92, label %118

92:                                               ; preds = %89
  %93 = load i64, ptr %7, align 8, !tbaa !10
  %94 = load i8, ptr %5, align 1, !tbaa !14, !range !16, !noundef !17
  %95 = trunc i8 %94 to i1
  %96 = call i32 @H5I_inc_ref(i64 noundef %93, i1 noundef zeroext %95)
  %97 = icmp slt i32 %96, 0
  br i1 %97, label %98, label %117

98:                                               ; preds = %92
  br label %99

99:                                               ; preds = %98
  br label %100

100:                                              ; preds = %99
  br label %101

101:                                              ; preds = %100
  %102 = load i64, ptr @H5E_VFL_g, align 8, !tbaa !10
  %103 = load i64, ptr @H5E_CANTINC_g, align 8, !tbaa !10
  %104 = call i32 (ptr, ptr, i32, i64, i64, ptr, ...) @H5E_printf_stack(ptr noundef @.str, ptr noundef @__func__.H5FD_register_driver_by_value, i32 noundef 3246, i64 noundef %102, i64 noundef %103, ptr noundef @.str.40)
  br label %105

105:                                              ; preds = %101
  br label %106

106:                                              ; preds = %105
  store i8 1, ptr %9, align 1, !tbaa !14
  %107 = load i8, ptr %9, align 1, !tbaa !14, !range !16, !noundef !17
  %108 = trunc i8 %107 to i1
  %109 = zext i1 %108 to i8
  store i8 %109, ptr %9, align 1, !tbaa !14
  br label %110

110:                                              ; preds = %106
  br label %111

111:                                              ; preds = %110
  br label %112

112:                                              ; preds = %111
  store i64 -1, ptr %8, align 8, !tbaa !10
  br label %174

113:                                              ; No predecessors!
  br label %114

114:                                              ; preds = %113
  br label %115

115:                                              ; preds = %114
  br label %116

116:                                              ; preds = %115
  br label %117

117:                                              ; preds = %116, %92
  br label %172

118:                                              ; preds = %89
  call void @llvm.lifetime.start.p0(i64 16, ptr %10) #8
  call void @llvm.lifetime.start.p0(i64 8, ptr %11) #8
  %119 = getelementptr inbounds nuw %struct.H5PL_vfd_key_t, ptr %10, i32 0, i32 0
  store i32 1, ptr %119, align 8, !tbaa !88
  %120 = load i32, ptr %4, align 4, !tbaa !12
  %121 = getelementptr inbounds nuw %struct.H5PL_vfd_key_t, ptr %10, i32 0, i32 1
  store i32 %120, ptr %121, align 8, !tbaa !88
  %122 = call ptr @H5PL_load(i32 noundef 2, ptr noundef %10)
  store ptr %122, ptr %11, align 8, !tbaa !76
  %123 = icmp eq ptr null, %122
  br i1 %123, label %124, label %143

124:                                              ; preds = %118
  br label %125

125:                                              ; preds = %124
  br label %126

126:                                              ; preds = %125
  br label %127

127:                                              ; preds = %126
  %128 = load i64, ptr @H5E_VFL_g, align 8, !tbaa !10
  %129 = load i64, ptr @H5E_CANTINIT_g, align 8, !tbaa !10
  %130 = call i32 (ptr, ptr, i32, i64, i64, ptr, ...) @H5E_printf_stack(ptr noundef @.str, ptr noundef @__func__.H5FD_register_driver_by_value, i32 noundef 3256, i64 noundef %128, i64 noundef %129, ptr noundef @.str.41)
  br label %131

131:                                              ; preds = %127
  br label %132

132:                                              ; preds = %131
  store i8 1, ptr %9, align 1, !tbaa !14
  %133 = load i8, ptr %9, align 1, !tbaa !14, !range !16, !noundef !17
  %134 = trunc i8 %133 to i1
  %135 = zext i1 %134 to i8
  store i8 %135, ptr %9, align 1, !tbaa !14
  br label %136

136:                                              ; preds = %132
  br label %137

137:                                              ; preds = %136
  br label %138

138:                                              ; preds = %137
  store i64 -1, ptr %8, align 8, !tbaa !10
  store i32 10, ptr %12, align 4
  br label %169

139:                                              ; No predecessors!
  br label %140

140:                                              ; preds = %139
  br label %141

141:                                              ; preds = %140
  br label %142

142:                                              ; preds = %141
  br label %143

143:                                              ; preds = %142, %118
  %144 = load ptr, ptr %11, align 8, !tbaa !76
  %145 = load i8, ptr %5, align 1, !tbaa !14, !range !16, !noundef !17
  %146 = trunc i8 %145 to i1
  %147 = call i64 @H5FD_register(ptr noundef %144, i64 noundef 336, i1 noundef zeroext %146)
  store i64 %147, ptr %7, align 8, !tbaa !10
  %148 = icmp slt i64 %147, 0
  br i1 %148, label %149, label %168

149:                                              ; preds = %143
  br label %150

150:                                              ; preds = %149
  br label %151

151:                                              ; preds = %150
  br label %152

152:                                              ; preds = %151
  %153 = load i64, ptr @H5E_VFL_g, align 8, !tbaa !10
  %154 = load i64, ptr @H5E_CANTREGISTER_g, align 8, !tbaa !10
  %155 = call i32 (ptr, ptr, i32, i64, i64, ptr, ...) @H5E_printf_stack(ptr noundef @.str, ptr noundef @__func__.H5FD_register_driver_by_value, i32 noundef 3260, i64 noundef %153, i64 noundef %154, ptr noundef @.str.42)
  br label %156

156:                                              ; preds = %152
  br label %157

157:                                              ; preds = %156
  store i8 1, ptr %9, align 1, !tbaa !14
  %158 = load i8, ptr %9, align 1, !tbaa !14, !range !16, !noundef !17
  %159 = trunc i8 %158 to i1
  %160 = zext i1 %159 to i8
  store i8 %160, ptr %9, align 1, !tbaa !14
  br label %161

161:                                              ; preds = %157
  br label %162

162:                                              ; preds = %161
  br label %163

163:                                              ; preds = %162
  store i64 -1, ptr %8, align 8, !tbaa !10
  store i32 10, ptr %12, align 4
  br label %169

164:                                              ; No predecessors!
  br label %165

165:                                              ; preds = %164
  br label %166

166:                                              ; preds = %165
  br label %167

167:                                              ; preds = %166
  br label %168

168:                                              ; preds = %167, %143
  store i32 0, ptr %12, align 4
  br label %169

169:                                              ; preds = %163, %138, %168
  call void @llvm.lifetime.end.p0(i64 8, ptr %11) #8
  call void @llvm.lifetime.end.p0(i64 16, ptr %10) #8
  %170 = load i32, ptr %12, align 4
  switch i32 %170, label %177 [
    i32 0, label %171
    i32 10, label %174
  ]

171:                                              ; preds = %169
  br label %172

172:                                              ; preds = %171, %117
  %173 = load i64, ptr %7, align 8, !tbaa !10
  store i64 %173, ptr %8, align 8, !tbaa !10
  br label %174

174:                                              ; preds = %172, %169, %112, %84, %45
  br label %175

175:                                              ; preds = %174, %58
  %176 = load i64, ptr %8, align 8, !tbaa !10
  store i64 %176, ptr %3, align 8
  store i32 1, ptr %12, align 4
  br label %177

177:                                              ; preds = %175, %169
  call void @llvm.lifetime.end.p0(i64 1, ptr %9) #8
  call void @llvm.lifetime.end.p0(i64 8, ptr %8) #8
  call void @llvm.lifetime.end.p0(i64 8, ptr %7) #8
  call void @llvm.lifetime.end.p0(i64 4, ptr %6) #8
  %178 = load i64, ptr %3, align 8
  ret i64 %178
}