; Function Attrs: nounwind uwtable
define i64 @H5FD_register_driver_by_value(i32 noundef %0, i1 noundef zeroext %1) local_unnamed_addr #0 {
  %3 = alloca i64, align 8
  %4 = alloca %union.H5PL_key_t, align 8
  call void @llvm.lifetime.start.p0(i64 8, ptr nonnull %3) #12
  store i64 -1, ptr %3, align 8, !tbaa !10
  %5 = load i8, ptr @H5FD_init_g, align 1, !tbaa !3, !range !7, !noundef !8
  %6 = trunc nuw i8 %5 to i1
  %7 = load i8, ptr @H5_libterm_g, align 1, !range !7
  %8 = trunc nuw i8 %7 to i1
  %9 = select i1 %6, i1 true, i1 %8
  br i1 %9, label %17, label %10, !prof !9

10:                                               ; preds = %2
  store i8 1, ptr @H5FD_init_g, align 1, !tbaa !3
  %11 = tail call i32 @H5FD__init_package() #12
  %12 = icmp slt i32 %11, 0
  br i1 %12, label %13, label %._crit_edge

._crit_edge:                                      ; preds = %10
  %.pre = load i8, ptr @H5FD_init_g, align 1, !tbaa !3, !range !7
  %.pre19 = load i8, ptr @H5_libterm_g, align 1, !range !7
  %.pre22 = trunc nuw i8 %.pre to i1
  %.pre23 = trunc nuw i8 %.pre19 to i1
  br label %17

13:                                               ; preds = %10
  store i8 0, ptr @H5FD_init_g, align 1, !tbaa !3
  %14 = load i64, ptr @H5E_FUNC_g, align 8, !tbaa !10
  %15 = load i64, ptr @H5E_CANTINIT_g, align 8, !tbaa !10
  %16 = tail call i32 (ptr, ptr, i32, i64, i64, ptr, ...) @H5E_printf_stack(ptr noundef nonnull @.str, ptr noundef nonnull @__func__.H5FD_register_driver_by_value, i32 noundef 3235, i64 noundef %14, i64 noundef %15, ptr noundef nonnull @.str.6) #12
  br label %52

17:                                               ; preds = %._crit_edge, %2
  %.pre-phi24 = phi i1 [ %.pre23, %._crit_edge ], [ %8, %2 ]
  %.pre-phi = phi i1 [ %.pre22, %._crit_edge ], [ %6, %2 ]
  %18 = xor i1 %.pre-phi24, true
  %19 = select i1 %.pre-phi, i1 true, i1 %18
  br i1 %19, label %20, label %52, !prof !9

20:                                               ; preds = %17
  %21 = call i32 @H5FD_is_driver_registered_by_value(i32 noundef %0, ptr noundef nonnull %3)
  %22 = icmp slt i32 %21, 0
  br i1 %22, label %23, label %27

23:                                               ; preds = %20
  %24 = load i64, ptr @H5E_VFL_g, align 8, !tbaa !10
  %25 = load i64, ptr @H5E_BADITER_g, align 8, !tbaa !10
  %26 = call i32 (ptr, ptr, i32, i64, i64, ptr, ...) @H5E_printf_stack(ptr noundef nonnull @.str, ptr noundef nonnull @__func__.H5FD_register_driver_by_value, i32 noundef 3239, i64 noundef %24, i64 noundef %25, ptr noundef nonnull @.str.39) #12
  br label %52

27:                                               ; preds = %20
  %.not = icmp eq i32 %21, 0
  br i1 %.not, label %36, label %28

28:                                               ; preds = %27
  %29 = load i64, ptr %3, align 8, !tbaa !10
  %30 = call i32 @H5I_inc_ref(i64 noundef %29, i1 noundef zeroext %1) #12
  %31 = icmp slt i32 %30, 0
  br i1 %31, label %32, label %._crit_edge20

._crit_edge20:                                    ; preds = %28
  %.pre21 = load i64, ptr %3, align 8, !tbaa !10
  br label %52

32:                                               ; preds = %28
  %33 = load i64, ptr @H5E_VFL_g, align 8, !tbaa !10
  %34 = load i64, ptr @H5E_CANTINC_g, align 8, !tbaa !10
  %35 = call i32 (ptr, ptr, i32, i64, i64, ptr, ...) @H5E_printf_stack(ptr noundef nonnull @.str, ptr noundef nonnull @__func__.H5FD_register_driver_by_value, i32 noundef 3246, i64 noundef %33, i64 noundef %34, ptr noundef nonnull @.str.40) #12
  br label %52

36:                                               ; preds = %27
  call void @llvm.lifetime.start.p0(i64 16, ptr nonnull %4) #12
  store i32 1, ptr %4, align 8, !tbaa !77
  %37 = getelementptr inbounds nuw i8, ptr %4, i64 8
  store i32 %0, ptr %37, align 8, !tbaa !77
  %38 = call ptr @H5PL_load(i32 noundef 2, ptr noundef nonnull %4) #12
  %39 = icmp eq ptr %38, null
  br i1 %39, label %40, label %44

40:                                               ; preds = %36
  %41 = load i64, ptr @H5E_VFL_g, align 8, !tbaa !10
  %42 = load i64, ptr @H5E_CANTINIT_g, align 8, !tbaa !10
  %43 = call i32 (ptr, ptr, i32, i64, i64, ptr, ...) @H5E_printf_stack(ptr noundef nonnull @.str, ptr noundef nonnull @__func__.H5FD_register_driver_by_value, i32 noundef 3256, i64 noundef %41, i64 noundef %42, ptr noundef nonnull @.str.41) #12
  br label %.thread

44:                                               ; preds = %36
  %45 = call i64 @H5FD_register(ptr noundef nonnull %38, i64 noundef 336, i1 noundef zeroext %1) #12
  store i64 %45, ptr %3, align 8, !tbaa !10
  %46 = icmp slt i64 %45, 0
  br i1 %46, label %47, label %51

47:                                               ; preds = %44
  %48 = load i64, ptr @H5E_VFL_g, align 8, !tbaa !10
  %49 = load i64, ptr @H5E_CANTREGISTER_g, align 8, !tbaa !10
  %50 = call i32 (ptr, ptr, i32, i64, i64, ptr, ...) @H5E_printf_stack(ptr noundef nonnull @.str, ptr noundef nonnull @__func__.H5FD_register_driver_by_value, i32 noundef 3260, i64 noundef %48, i64 noundef %49, ptr noundef nonnull @.str.42) #12
  br label %.thread

.thread:                                          ; preds = %40, %47
  call void @llvm.lifetime.end.p0(i64 16, ptr nonnull %4) #12
  br label %52

51:                                               ; preds = %44
  call void @llvm.lifetime.end.p0(i64 16, ptr nonnull %4) #12
  br label %52

52:                                               ; preds = %51, %._crit_edge20, %.thread, %17, %32, %23, %13
  %.013 = phi i64 [ -1, %13 ], [ -1, %23 ], [ -1, %32 ], [ -1, %17 ], [ -1, %.thread ], [ %.pre21, %._crit_edge20 ], [ %45, %51 ]
  call void @llvm.lifetime.end.p0(i64 8, ptr nonnull %3) #12
  ret i64 %.013
}